target datalayout = "e-m:e-p270:32:32-p271:32:32-p272:64:64-i64:64-i128:128-f80:128-n8:16:32:64-S128"
target triple = "x86_64-pc-linux-gnu"

%struct.stat = type { i64, i64, i64, i32, i32, i32, i32, i64, i64, i64, i64, %struct.timespec, %struct.timespec, %struct.timespec, [3 x i64] }
%struct.timespec = type { i64, i64 }

; Function Attrs: mustprogress nounwind uwtable
define noundef double @_ZN32pxrInternal_v0_24__pxrReserved__23ArchGetModificationTimeERK4stat(ptr noundef nonnull align 8 dereferenceable(144) %0) #2 {
  %2 = alloca ptr, align 8
  store ptr %0, ptr %2, align 8
  %3 = load ptr, ptr %2, align 8
  %4 = getelementptr inbounds nuw %struct.stat, ptr %3, i32 0, i32 12
  %5 = getelementptr inbounds nuw %struct.timespec, ptr %4, i32 0, i32 0
  %6 = load i64, ptr %5, align 8
  %7 = sitofp i64 %6 to double
  %8 = load ptr, ptr %2, align 8
  %9 = getelementptr inbounds nuw %struct.stat, ptr %8, i32 0, i32 12
  %10 = getelementptr inbounds nuw %struct.timespec, ptr %9, i32 0, i32 1
  %11 = load i64, ptr %10, align 8
  %12 = sitofp i64 %11 to double
  %13 = call double @llvm.fmuladd.f64(double 1.000000e-09, double %12, double %7)
  ret double %13
}

; Function Attrs: mustprogress uwtable
define noundef zeroext i1 @_ZN32pxrInternal_v0_24__pxrReserved__23ArchGetModificationTimeEPKcPd(ptr noundef %0, ptr noundef %1) #0 {
  %3 = alloca i1, align 1
  %4 = alloca ptr, align 8
  %5 = alloca ptr, align 8
  %6 = alloca %struct.stat, align 8
  store ptr %0, ptr %4, align 8
  store ptr %1, ptr %5, align 8
  %7 = load ptr, ptr %4, align 8
  %8 = call i32 @stat(ptr noundef %7, ptr noundef %6) #6
  %9 = icmp eq i32 %8, 0
  br i1 %9, label %10, label %13

10:                                               ; preds = %2
  %11 = call noundef double @_ZN32pxrInternal_v0_24__pxrReserved__23ArchGetModificationTimeERK4stat(ptr noundef nonnull align 8 dereferenceable(144) %6)
  %12 = load ptr, ptr %5, align 8
  store double %11, ptr %12, align 8
  store i1 true, ptr %3, align 1
  br label %14

13:                                               ; preds = %2
  store i1 false, ptr %3, align 1
  br label %14

14:                                               ; preds = %13, %10
  %15 = load i1, ptr %3, align 1
  ret i1 %15
}