; Function Attrs: mustprogress nofree nounwind uwtable
define noundef zeroext i1 @_ZN32pxrInternal_v0_24__pxrReserved__23ArchGetModificationTimeEPKcPd(ptr noundef readonly captures(none) %0, ptr noundef writeonly captures(none) %1) local_unnamed_addr #0 {
  %3 = alloca %struct.stat, align 8
  %4 = call i32 @stat(ptr noundef %0, ptr noundef nonnull %3) #23
  %5 = icmp eq i32 %4, 0
  br i1 %5, label %6, label %14

6:                                                ; preds = %2
  %7 = getelementptr inbounds nuw i8, ptr %3, i64 88
  %8 = load i64, ptr %7, align 8
  %9 = sitofp i64 %8 to double
  %10 = getelementptr inbounds nuw i8, ptr %3, i64 96
  %11 = load i64, ptr %10, align 8
  %12 = sitofp i64 %11 to double
  %13 = tail call noundef double @llvm.fmuladd.f64(double %12, double 1.000000e-09, double %9)
  store double %13, ptr %1, align 8
  br label %14

14:                                               ; preds = %2, %6
  ret i1 %5
}